target datalayout = "e-m:e-p270:32:32-p271:32:32-p272:64:64-i64:64-i128:128-f80:128-n8:16:32:64-S128"
target triple = "x86_64-pc-linux-gnu"

@infile = internal global ptr null, align 8
@outfile = internal global ptr null, align 8

; Function Attrs: nounwind uwtable
define internal void @copy_rest_of_file() #0 {
  %1 = alloca i32, align 4
  call void @llvm.lifetime.start.p0(i64 4, ptr %1) #10
  br label %2

2:                                                ; preds = %6, %0
  %3 = load ptr, ptr @infile, align 8, !tbaa !13
  %4 = call i32 @getc(ptr noundef %3)
  store i32 %4, ptr %1, align 4, !tbaa !4
  %5 = icmp ne i32 %4, -1
  br i1 %5, label %6, label %10

6:                                                ; preds = %2
  %7 = load i32, ptr %1, align 4, !tbaa !4
  %8 = load ptr, ptr @outfile, align 8, !tbaa !13
  %9 = call i32 @putc(i32 noundef %7, ptr noundef %8)
  br label %2, !llvm.loop !27

10:                                               ; preds = %2
  call void @llvm.lifetime.end.p0(i64 4, ptr %1) #10
  ret void
}