; Function Attrs: nofree nounwind uwtable
define internal fastcc void @copy_rest_of_file() unnamed_addr #7 {
  %1 = load ptr, ptr @infile, align 8, !tbaa !20
  %2 = tail call i32 @getc(ptr noundef %1)
  %.not1 = icmp eq i32 %2, -1
  br i1 %.not1, label %._crit_edge, label %.lr.ph

.lr.ph:                                           ; preds = %0, %.lr.ph
  %3 = phi i32 [ %7, %.lr.ph ], [ %2, %0 ]
  %4 = load ptr, ptr @outfile, align 8, !tbaa !20
  %5 = tail call i32 @putc(i32 noundef %3, ptr noundef %4)
  %6 = load ptr, ptr @infile, align 8, !tbaa !20
  %7 = tail call i32 @getc(ptr noundef %6)
  %.not = icmp eq i32 %7, -1
  br i1 %.not, label %._crit_edge, label %.lr.ph, !llvm.loop !27

._crit_edge:                                      ; preds = %.lr.ph, %0
  ret void
}